; Function Attrs: mustprogress uwtable
define hidden noundef i32 @_ZN4ncnn4LSTM10load_paramERKNS_9ParamDictE(ptr noundef nonnull align 8 captures(none) dereferenceable(664) initializes((208, 228)) %0, ptr noundef nonnull align 8 dereferenceable(16) %1) unnamed_addr #1 align 2 {
  %3 = tail call noundef i32 @_ZNK4ncnn9ParamDict3getEii(ptr noundef nonnull align 8 dereferenceable(16) %1, i32 noundef 0, i32 noundef 0)
  %4 = getelementptr inbounds nuw i8, ptr %0, i64 208
  store i32 %3, ptr %4, align 8, !tbaa !18
  %5 = tail call noundef i32 @_ZNK4ncnn9ParamDict3getEii(ptr noundef nonnull align 8 dereferenceable(16) %1, i32 noundef 1, i32 noundef 0)
  %6 = getelementptr inbounds nuw i8, ptr %0, i64 212
  store i32 %5, ptr %6, align 4, !tbaa !34
  %7 = tail call noundef i32 @_ZNK4ncnn9ParamDict3getEii(ptr noundef nonnull align 8 dereferenceable(16) %1, i32 noundef 2, i32 noundef 0)
  %8 = getelementptr inbounds nuw i8, ptr %0, i64 216
  store i32 %7, ptr %8, align 8, !tbaa !35
  %9 = load i32, ptr %4, align 8, !tbaa !18
  %10 = tail call noundef i32 @_ZNK4ncnn9ParamDict3getEii(ptr noundef nonnull align 8 dereferenceable(16) %1, i32 noundef 3, i32 noundef %9)
  %11 = getelementptr inbounds nuw i8, ptr %0, i64 220
  store i32 %10, ptr %11, align 4, !tbaa !36
  %12 = tail call noundef i32 @_ZNK4ncnn9ParamDict3getEii(ptr noundef nonnull align 8 dereferenceable(16) %1, i32 noundef 8, i32 noundef 0)
  %13 = getelementptr inbounds nuw i8, ptr %0, i64 224
  store i32 %12, ptr %13, align 8, !tbaa !37
  ret i32 0
}